; ModuleID = 'bench/openssl/original/output.ll'
source_filename = "bench/openssl/original/output.ll"
target datalayout = "e-m:e-p270:32:32-p271:32:32-p272:64:64-i64:64-i128:128-f80:128-n8:16:32:64-S128"
target triple = "x86_64-pc-linux-gnu"

%struct.__va_list_tag = type { i32, i32, ptr, ptr }

; Function Attrs: nounwind uwtable
define i32 @test_printf_stdout(ptr noundef %0, ...) local_unnamed_addr #0 {
  %2 = alloca [1 x %struct.__va_list_tag], align 16
  call void @llvm.lifetime.start.p0(i64 24, ptr nonnull %2) #4
  call void @llvm.va_start.p0(ptr nonnull %2)
  %3 = call i32 @test_vprintf_stdout(ptr noundef %0, ptr noundef nonnull %2) #4
  call void @llvm.va_end.p0(ptr nonnull %2)
  call void @llvm.lifetime.end.p0(i64 24, ptr nonnull %2) #4
  ret i32 %3
}

; Function Attrs: mustprogress nocallback nofree nosync nounwind willreturn memory(argmem: readwrite)
declare void @llvm.lifetime.start.p0(i64 immarg, ptr captures(none)) #1

; Function Attrs: mustprogress nocallback nofree nosync nounwind willreturn
declare void @llvm.va_start.p0(ptr) #2

declare i32 @test_vprintf_stdout(ptr noundef, ptr noundef) local_unnamed_addr #3

; Function Attrs: mustprogress nocallback nofree nosync nounwind willreturn
declare void @llvm.va_end.p0(ptr) #2

; Function Attrs: mustprogress nocallback nofree nosync nounwind willreturn memory(argmem: readwrite)
declare void @llvm.lifetime.end.p0(i64 immarg, ptr captures(none)) #1

; Function Attrs: nounwind uwtable
define i32 @test_printf_stderr(ptr noundef %0, ...) local_unnamed_addr #0 {
  %2 = alloca [1 x %struct.__va_list_tag], align 16
  call void @llvm.lifetime.start.p0(i64 24, ptr nonnull %2) #4
  call void @llvm.va_start.p0(ptr nonnull %2)
  %3 = call i32 @test_vprintf_stderr(ptr noundef %0, ptr noundef nonnull %2) #4
  call void @llvm.va_end.p0(ptr nonnull %2)
  call void @llvm.lifetime.end.p0(i64 24, ptr nonnull %2) #4
  ret i32 %3
}

declare i32 @test_vprintf_stderr(ptr noundef, ptr noundef) local_unnamed_addr #3

; Function Attrs: nounwind uwtable
define i32 @test_printf_tapout(ptr noundef %0, ...) local_unnamed_addr #0 {
  %2 = alloca [1 x %struct.__va_list_tag], align 16
  call void @llvm.lifetime.start.p0(i64 24, ptr nonnull %2) #4
  call void @llvm.va_start.p0(ptr nonnull %2)
  %3 = call i32 @test_vprintf_tapout(ptr noundef %0, ptr noundef nonnull %2) #4
  call void @llvm.va_end.p0(ptr nonnull %2)
  call void @llvm.lifetime.end.p0(i64 24, ptr nonnull %2) #4
  ret i32 %3
}

declare i32 @test_vprintf_tapout(ptr noundef, ptr noundef) local_unnamed_addr #3

; Function Attrs: nounwind uwtable
define i32 @test_printf_taperr(ptr noundef %0, ...) local_unnamed_addr #0 {
  %2 = alloca [1 x %struct.__va_list_tag], align 16
  call void @llvm.lifetime.start.p0(i64 24, ptr nonnull %2) #4
  call void @llvm.va_start.p0(ptr nonnull %2)
  %3 = call i32 @test_vprintf_taperr(ptr noundef %0, ptr noundef nonnull %2) #4
  call void @llvm.va_end.p0(ptr nonnull %2)
  call void @llvm.lifetime.end.p0(i64 24, ptr nonnull %2) #4
  ret i32 %3
}

declare i32 @test_vprintf_taperr(ptr noundef, ptr noundef) local_unnamed_addr #3


!llvm.module.flags = !{!0, !1, !2}

!0 = !{i32 1, !"wchar_size", i32 4}
!1 = !{i32 8, !"PIC Level", i32 2}
!2 = !{i32 7, !"uwtable", i32 2}
